
pr4_lab.elf:     file format elf32-littleriscv
pr4_lab.elf
architecture: riscv:rv32, flags 0x00000112:
EXEC_P, HAS_SYMS, D_PAGED
start address 0x0000021c

Program Header:
    LOAD off    0x00001000 vaddr 0x00000000 paddr 0x00000000 align 2**12
         filesz 0x000002c0 memsz 0x000002c0 flags r-x
    LOAD off    0x00002000 vaddr 0x00010000 paddr 0x00010000 align 2**12
         filesz 0x00000028 memsz 0x00000040 flags rw-

Sections:
Idx Name                 Size      VMA       LMA       File off  Algn  Flags
  0 .text                000000b4  00000000  00000000  00001000  2**2  CONTENTS, ALLOC, LOAD, READONLY, CODE
  1 .text.mul            00000084  000000b4  000000b4  000010b4  2**2  CONTENTS, ALLOC, LOAD, READONLY, CODE
  2 .text.i_sqrt         00000058  00000138  00000138  00001138  2**2  CONTENTS, ALLOC, LOAD, READONLY, CODE
  3 .text.guardar_vector 0000008c  00000190  00000190  00001190  2**2  CONTENTS, ALLOC, LOAD, READONLY, CODE
  4 .text.main           000000a4  0000021c  0000021c  0000121c  2**2  CONTENTS, ALLOC, LOAD, READONLY, CODE
  5 .data.U              00000014  00010000  00010000  00002000  2**2  CONTENTS, ALLOC, LOAD, DATA
  6 .data.V              00000014  00010014  00010014  00002014  2**2  CONTENTS, ALLOC, LOAD, DATA
  7 .sbss.mayor_u        00000001  00010028  00010028  00002028  2**0  ALLOC
  8 .bss.MAY             00000014  0001002c  0001002c  00002028  2**2  ALLOC
  9 .riscv.attributes    00000021  00000000  00000000  00002028  2**0  CONTENTS, READONLY
 10 .comment             00000012  00000000  00000000  00002049  2**0  CONTENTS, READONLY
 11 .debug_line          0000031e  00000000  00000000  0000205b  2**0  CONTENTS, READONLY, DEBUGGING, OCTETS
 12 .debug_info          0000023a  00000000  00000000  00002379  2**0  CONTENTS, READONLY, DEBUGGING, OCTETS
 13 .debug_abbrev        0000016c  00000000  00000000  000025b3  2**0  CONTENTS, READONLY, DEBUGGING, OCTETS
 14 .debug_aranges       00000058  00000000  00000000  00002720  2**3  CONTENTS, READONLY, DEBUGGING, OCTETS
 15 .debug_str           00002452  00000000  00000000  00002778  2**0  CONTENTS, READONLY, DEBUGGING, OCTETS
 16 .debug_ranges        00000028  00000000  00000000  00004bca  2**0  CONTENTS, READONLY, DEBUGGING, OCTETS
 17 .debug_macro         000006ff  00000000  00000000  00004bf2  2**0  CONTENTS, READONLY, DEBUGGING, OCTETS
 18 .debug_frame         000000a0  00000000  00000000  000052f4  2**2  CONTENTS, READONLY, DEBUGGING, OCTETS
SYMBOL TABLE:
00000000 l    d  .text	00000000 .text
000000b4 l    d  .text.mul	00000000 .text.mul
00000138 l    d  .text.i_sqrt	00000000 .text.i_sqrt
00000190 l    d  .text.guardar_vector	00000000 .text.guardar_vector
0000021c l    d  .text.main	00000000 .text.main
00010000 l    d  .data.U	00000000 .data.U
00010014 l    d  .data.V	00000000 .data.V
00010028 l    d  .sbss.mayor_u	00000000 .sbss.mayor_u
0001002c l    d  .bss.MAY	00000000 .bss.MAY
00000000 l    d  .riscv.attributes	00000000 .riscv.attributes
00000000 l    d  .comment	00000000 .comment
00000000 l    d  .debug_line	00000000 .debug_line
00000000 l    d  .debug_info	00000000 .debug_info
00000000 l    d  .debug_abbrev	00000000 .debug_abbrev
00000000 l    d  .debug_aranges	00000000 .debug_aranges
00000000 l    d  .debug_str	00000000 .debug_str
00000000 l    d  .debug_ranges	00000000 .debug_ranges
00000000 l    d  .debug_macro	00000000 .debug_macro
00000000 l    d  .debug_frame	00000000 .debug_frame
00000000 l    df *ABS*	00000000 ./fun_asm.o
00000000 l       .text	00000000 main
00000018 l       .text	00000000 for_eucl
00000068 l       .text	00000000 efor
00000000 l    df *ABS*	00000000 pr4_lab.c
00000008 g       .text	00000000 eucl_dist
00000138 g     F .text.i_sqrt	00000058 i_sqrt
0001002c g     O .bss.MAY	00000014 MAY
00010014 g     O .data.V	00000014 V
000000b4 g     F .text.mul	00000084 mul
0000021c g     F .text.main	000000a4 main
00010028 g     O .sbss.mayor_u	00000001 mayor_u
00010000 g     O .data.U	00000014 U
00000190 g     F .text.guardar_vector	0000008c guardar_vector
00020000 g       *ABS*	00000000 _stack
000000ac g       .text	00000000 guardar_word
000000a4 g       .text	00000000 guardar



Disassembly of section .text:

00000000 <main>:
main():
C:\Users\ivi17\Downloads\FC2practicasWS\pr4_lab\Debug/../fun_asm.asm:26
.extern i_sqrt
.extern _stack
.global guardar_word

main:
	la sp , _stack
   0:	00020117          	auipc	sp,0x20
   4:	00010113          	mv	sp,sp

00000008 <eucl_dist>:
eucl_dist():
C:\Users\ivi17\Downloads\FC2practicasWS\pr4_lab\Debug/../fun_asm.asm:33
//int eucl_dist(int * w, int size);
eucl_dist:
    //recibo dirección de W en a0, y tamaño N en a1
    //realizo los cálculos pertinentes
    //devuelvo el resultado en a0
	mv t1, a0  // t1 = W = a0
   8:	00050313          	mv	t1,a0
C:\Users\ivi17\Downloads\FC2practicasWS\pr4_lab\Debug/../fun_asm.asm:34
	mv t2, a1 // t2 = N = a1
   c:	00058393          	mv	t2,a1
C:\Users\ivi17\Downloads\FC2practicasWS\pr4_lab\Debug/../fun_asm.asm:35
	li t3, 0 // i = 0
  10:	00000e13          	li	t3,0
C:\Users\ivi17\Downloads\FC2practicasWS\pr4_lab\Debug/../fun_asm.asm:36
	li t4, 0 // t4 = acc
  14:	00000e93          	li	t4,0

00000018 <for_eucl>:
for_eucl():
C:\Users\ivi17\Downloads\FC2practicasWS\pr4_lab\Debug/../fun_asm.asm:38
for_eucl:
	bge t3, t2, efor
  18:	047e5863          	bge	t3,t2,68 <efor>
C:\Users\ivi17\Downloads\FC2practicasWS\pr4_lab\Debug/../fun_asm.asm:41
	// a0 = w[i]
	// a1 = w[i]
	slli a0, t3, 2
  1c:	002e1513          	slli	a0,t3,0x2
C:\Users\ivi17\Downloads\FC2practicasWS\pr4_lab\Debug/../fun_asm.asm:42
	add a0, t1, a0
  20:	00a30533          	add	a0,t1,a0
C:\Users\ivi17\Downloads\FC2practicasWS\pr4_lab\Debug/../fun_asm.asm:43
	lw a0, 0(a0)
  24:	00052503          	lw	a0,0(a0)
C:\Users\ivi17\Downloads\FC2practicasWS\pr4_lab\Debug/../fun_asm.asm:44
	addi sp , sp , -20
  28:	fec10113          	addi	sp,sp,-20 # 1ffec <MAY+0xffc0>
C:\Users\ivi17\Downloads\FC2practicasWS\pr4_lab\Debug/../fun_asm.asm:45
	sw ra , 16(sp)
  2c:	00112823          	sw	ra,16(sp)
C:\Users\ivi17\Downloads\FC2practicasWS\pr4_lab\Debug/../fun_asm.asm:46
	sw t4 , 12(sp)
  30:	01d12623          	sw	t4,12(sp)
C:\Users\ivi17\Downloads\FC2practicasWS\pr4_lab\Debug/../fun_asm.asm:47
	sw t3 , 8(sp)
  34:	01c12423          	sw	t3,8(sp)
C:\Users\ivi17\Downloads\FC2practicasWS\pr4_lab\Debug/../fun_asm.asm:48
	sw t2 , 4(sp)
  38:	00712223          	sw	t2,4(sp)
C:\Users\ivi17\Downloads\FC2practicasWS\pr4_lab\Debug/../fun_asm.asm:49
	sw t1 , 0(sp)
  3c:	00612023          	sw	t1,0(sp)
C:\Users\ivi17\Downloads\FC2practicasWS\pr4_lab\Debug/../fun_asm.asm:50
	call mul
  40:	074000ef          	jal	ra,b4 <mul>
C:\Users\ivi17\Downloads\FC2practicasWS\pr4_lab\Debug/../fun_asm.asm:52
	// a0 = int res
	lw ra , 16(sp)
  44:	01012083          	lw	ra,16(sp)
C:\Users\ivi17\Downloads\FC2practicasWS\pr4_lab\Debug/../fun_asm.asm:53
	lw t4 , 12(sp)
  48:	00c12e83          	lw	t4,12(sp)
C:\Users\ivi17\Downloads\FC2practicasWS\pr4_lab\Debug/../fun_asm.asm:54
	lw t3 , 8(sp)
  4c:	00812e03          	lw	t3,8(sp)
C:\Users\ivi17\Downloads\FC2practicasWS\pr4_lab\Debug/../fun_asm.asm:55
	lw t2 , 4(sp)
  50:	00412383          	lw	t2,4(sp)
C:\Users\ivi17\Downloads\FC2practicasWS\pr4_lab\Debug/../fun_asm.asm:56
	lw t1 , 0(sp)
  54:	00012303          	lw	t1,0(sp)
C:\Users\ivi17\Downloads\FC2practicasWS\pr4_lab\Debug/../fun_asm.asm:57
	addi sp , sp , 20
  58:	01410113          	addi	sp,sp,20
C:\Users\ivi17\Downloads\FC2practicasWS\pr4_lab\Debug/../fun_asm.asm:58
	add t4, t4, a0
  5c:	00ae8eb3          	add	t4,t4,a0
C:\Users\ivi17\Downloads\FC2practicasWS\pr4_lab\Debug/../fun_asm.asm:59
	addi t3, t3, 1
  60:	001e0e13          	addi	t3,t3,1
C:\Users\ivi17\Downloads\FC2practicasWS\pr4_lab\Debug/../fun_asm.asm:60
	j for_eucl
  64:	fb5ff06f          	j	18 <for_eucl>

00000068 <efor>:
efor():
C:\Users\ivi17\Downloads\FC2practicasWS\pr4_lab\Debug/../fun_asm.asm:62
efor:
	mv a0, t4
  68:	000e8513          	mv	a0,t4
C:\Users\ivi17\Downloads\FC2practicasWS\pr4_lab\Debug/../fun_asm.asm:63
	addi sp , sp , -20
  6c:	fec10113          	addi	sp,sp,-20
C:\Users\ivi17\Downloads\FC2practicasWS\pr4_lab\Debug/../fun_asm.asm:64
	sw ra , 16(sp)
  70:	00112823          	sw	ra,16(sp)
C:\Users\ivi17\Downloads\FC2practicasWS\pr4_lab\Debug/../fun_asm.asm:65
	sw t4 , 12(sp)
  74:	01d12623          	sw	t4,12(sp)
C:\Users\ivi17\Downloads\FC2practicasWS\pr4_lab\Debug/../fun_asm.asm:66
	sw t3 , 8(sp)
  78:	01c12423          	sw	t3,8(sp)
C:\Users\ivi17\Downloads\FC2practicasWS\pr4_lab\Debug/../fun_asm.asm:67
	sw t2 , 4(sp)
  7c:	00712223          	sw	t2,4(sp)
C:\Users\ivi17\Downloads\FC2practicasWS\pr4_lab\Debug/../fun_asm.asm:68
	sw t1 , 0(sp)
  80:	00612023          	sw	t1,0(sp)
C:\Users\ivi17\Downloads\FC2practicasWS\pr4_lab\Debug/../fun_asm.asm:69
	call i_sqrt
  84:	0b4000ef          	jal	ra,138 <i_sqrt>
C:\Users\ivi17\Downloads\FC2practicasWS\pr4_lab\Debug/../fun_asm.asm:70
	lw ra , 16(sp)
  88:	01012083          	lw	ra,16(sp)
C:\Users\ivi17\Downloads\FC2practicasWS\pr4_lab\Debug/../fun_asm.asm:71
	lw t4 , 12(sp)
  8c:	00c12e83          	lw	t4,12(sp)
C:\Users\ivi17\Downloads\FC2practicasWS\pr4_lab\Debug/../fun_asm.asm:72
	lw t3 , 8(sp)
  90:	00812e03          	lw	t3,8(sp)
C:\Users\ivi17\Downloads\FC2practicasWS\pr4_lab\Debug/../fun_asm.asm:73
	lw t2 , 4(sp)
  94:	00412383          	lw	t2,4(sp)
C:\Users\ivi17\Downloads\FC2practicasWS\pr4_lab\Debug/../fun_asm.asm:74
	lw t1 , 0(sp)
  98:	00012303          	lw	t1,0(sp)
C:\Users\ivi17\Downloads\FC2practicasWS\pr4_lab\Debug/../fun_asm.asm:75
	addi sp , sp , 20
  9c:	01410113          	addi	sp,sp,20
C:\Users\ivi17\Downloads\FC2practicasWS\pr4_lab\Debug/../fun_asm.asm:76
	ret
  a0:	00008067          	ret

000000a4 <guardar>:
guardar():
C:\Users\ivi17\Downloads\FC2practicasWS\pr4_lab\Debug/../fun_asm.asm:84
	//int guardar(char valor, char * ubicacion);
    //recibo el valor en a0, y la dirección destino en a1
    //asegurarse que sólo se guarda UN BYTE!!
    //mv a0, t1 // a0 = t1 = valor
    //mv a1, t2 // a1 = t2 = ubicacion
    sb a0, 0(a1)
  a4:	00a58023          	sb	a0,0(a1)
C:\Users\ivi17\Downloads\FC2practicasWS\pr4_lab\Debug/../fun_asm.asm:85
    ret
  a8:	00008067          	ret

000000ac <guardar_word>:
guardar_word():
C:\Users\ivi17\Downloads\FC2practicasWS\pr4_lab\Debug/../fun_asm.asm:93
	//int guardar(char valor, char * ubicacion);
    //recibo el valor en a0, y la dirección destino en a1
    //asegurarse que sólo se guarda UN BYTE!!
    //mv a0, t1 // a0 = t1 = valor
    //mv a1, t2 // a1 = t2 = ubicacion
    sw a0, 0(a1)
  ac:	00a5a023          	sw	a0,0(a1)
C:\Users\ivi17\Downloads\FC2practicasWS\pr4_lab\Debug/../fun_asm.asm:94
    ret
  b0:	00008067          	ret

Disassembly of section .text.mul:

000000b4 <mul>:
mul():
C:\Users\ivi17\Downloads\FC2practicasWS\pr4_lab\Debug/../pr4_lab.c:36
*/

/**
 * Función simple que multiplica dos números iterativamente
 */
int mul(int a, int b) {
  b4:	fd010113          	addi	sp,sp,-48
  b8:	02812623          	sw	s0,44(sp)
  bc:	03010413          	addi	s0,sp,48
  c0:	fca42e23          	sw	a0,-36(s0)
  c4:	fcb42c23          	sw	a1,-40(s0)
C:\Users\ivi17\Downloads\FC2practicasWS\pr4_lab\Debug/../pr4_lab.c:37
	int res = 0, sign = 0;
  c8:	fe042623          	sw	zero,-20(s0)
  cc:	fe042423          	sw	zero,-24(s0)
C:\Users\ivi17\Downloads\FC2practicasWS\pr4_lab\Debug/../pr4_lab.c:38
	if (a < 0) {
  d0:	fdc42783          	lw	a5,-36(s0)
  d4:	0207d663          	bgez	a5,100 <mul+0x4c>
C:\Users\ivi17\Downloads\FC2practicasWS\pr4_lab\Debug/../pr4_lab.c:39
		sign = 1;
  d8:	00100793          	li	a5,1
  dc:	fef42423          	sw	a5,-24(s0)
C:\Users\ivi17\Downloads\FC2practicasWS\pr4_lab\Debug/../pr4_lab.c:40
		a = -a;
  e0:	fdc42783          	lw	a5,-36(s0)
  e4:	40f007b3          	neg	a5,a5
  e8:	fcf42e23          	sw	a5,-36(s0)
C:\Users\ivi17\Downloads\FC2practicasWS\pr4_lab\Debug/../pr4_lab.c:42
	}
	while (a--) res += b;
  ec:	0140006f          	j	100 <mul+0x4c>
C:\Users\ivi17\Downloads\FC2practicasWS\pr4_lab\Debug/../pr4_lab.c:42 (discriminator 2)
  f0:	fec42703          	lw	a4,-20(s0)
  f4:	fd842783          	lw	a5,-40(s0)
  f8:	00f707b3          	add	a5,a4,a5
  fc:	fef42623          	sw	a5,-20(s0)
C:\Users\ivi17\Downloads\FC2practicasWS\pr4_lab\Debug/../pr4_lab.c:42 (discriminator 1)
 100:	fdc42783          	lw	a5,-36(s0)
 104:	fff78713          	addi	a4,a5,-1
 108:	fce42e23          	sw	a4,-36(s0)
 10c:	fe0792e3          	bnez	a5,f0 <mul+0x3c>
C:\Users\ivi17\Downloads\FC2practicasWS\pr4_lab\Debug/../pr4_lab.c:43
	if (sign)
 110:	fe842783          	lw	a5,-24(s0)
 114:	00078863          	beqz	a5,124 <mul+0x70>
C:\Users\ivi17\Downloads\FC2practicasWS\pr4_lab\Debug/../pr4_lab.c:44
		return -res;
 118:	fec42783          	lw	a5,-20(s0)
 11c:	40f007b3          	neg	a5,a5
 120:	0080006f          	j	128 <mul+0x74>
C:\Users\ivi17\Downloads\FC2practicasWS\pr4_lab\Debug/../pr4_lab.c:46
	else
		return res;
 124:	fec42783          	lw	a5,-20(s0)
C:\Users\ivi17\Downloads\FC2practicasWS\pr4_lab\Debug/../pr4_lab.c:47
}
 128:	00078513          	mv	a0,a5
 12c:	02c12403          	lw	s0,44(sp)
 130:	03010113          	addi	sp,sp,48
 134:	00008067          	ret

Disassembly of section .text.i_sqrt:

00000138 <i_sqrt>:
i_sqrt():
C:\Users\ivi17\Downloads\FC2practicasWS\pr4_lab\Debug/../pr4_lab.c:52

/**
 * Función simple que obtiene la raíz cuadrada iterativamente
 */
int i_sqrt(int a) {
 138:	fd010113          	addi	sp,sp,-48
 13c:	02112623          	sw	ra,44(sp)
 140:	02812423          	sw	s0,40(sp)
 144:	03010413          	addi	s0,sp,48
 148:	fca42e23          	sw	a0,-36(s0)
C:\Users\ivi17\Downloads\FC2practicasWS\pr4_lab\Debug/../pr4_lab.c:53
	int root = 0;
 14c:	fe042623          	sw	zero,-20(s0)
C:\Users\ivi17\Downloads\FC2practicasWS\pr4_lab\Debug/../pr4_lab.c:54
	while (mul(root, root) < a) {
 150:	0100006f          	j	160 <i_sqrt+0x28>
C:\Users\ivi17\Downloads\FC2practicasWS\pr4_lab\Debug/../pr4_lab.c:55
		root++;
 154:	fec42783          	lw	a5,-20(s0)
 158:	00178793          	addi	a5,a5,1
 15c:	fef42623          	sw	a5,-20(s0)
C:\Users\ivi17\Downloads\FC2practicasWS\pr4_lab\Debug/../pr4_lab.c:54
	while (mul(root, root) < a) {
 160:	fec42583          	lw	a1,-20(s0)
 164:	fec42503          	lw	a0,-20(s0)
 168:	f4dff0ef          	jal	ra,b4 <mul>
 16c:	00050713          	mv	a4,a0
 170:	fdc42783          	lw	a5,-36(s0)
 174:	fef740e3          	blt	a4,a5,154 <i_sqrt+0x1c>
C:\Users\ivi17\Downloads\FC2practicasWS\pr4_lab\Debug/../pr4_lab.c:57
	}
	return root;
 178:	fec42783          	lw	a5,-20(s0)
C:\Users\ivi17\Downloads\FC2practicasWS\pr4_lab\Debug/../pr4_lab.c:58
}
 17c:	00078513          	mv	a0,a5
 180:	02c12083          	lw	ra,44(sp)
 184:	02812403          	lw	s0,40(sp)
 188:	03010113          	addi	sp,sp,48
 18c:	00008067          	ret

Disassembly of section .text.guardar_vector:

00000190 <guardar_vector>:
guardar_vector():
C:\Users\ivi17\Downloads\FC2practicasWS\pr4_lab\Debug/../pr4_lab.c:79
/*
void guardar_word (int valor, int * direccion){
	* direccion = valor;
}*/

void guardar_vector(int vector[], int destino[], int size){
 190:	fd010113          	addi	sp,sp,-48
 194:	02112623          	sw	ra,44(sp)
 198:	02812423          	sw	s0,40(sp)
 19c:	03010413          	addi	s0,sp,48
 1a0:	fca42e23          	sw	a0,-36(s0)
 1a4:	fcb42c23          	sw	a1,-40(s0)
 1a8:	fcc42a23          	sw	a2,-44(s0)
C:\Users\ivi17\Downloads\FC2practicasWS\pr4_lab\Debug/../pr4_lab.c:80
	for (int i= 0; i< size; i++){
 1ac:	fe042623          	sw	zero,-20(s0)
 1b0:	0480006f          	j	1f8 <guardar_vector+0x68>
C:\Users\ivi17\Downloads\FC2practicasWS\pr4_lab\Debug/../pr4_lab.c:81 (discriminator 3)
		int valor = vector[i];
 1b4:	fec42783          	lw	a5,-20(s0)
 1b8:	00279793          	slli	a5,a5,0x2
 1bc:	fdc42703          	lw	a4,-36(s0)
 1c0:	00f707b3          	add	a5,a4,a5
 1c4:	0007a783          	lw	a5,0(a5)
 1c8:	fef42423          	sw	a5,-24(s0)
C:\Users\ivi17\Downloads\FC2practicasWS\pr4_lab\Debug/../pr4_lab.c:82 (discriminator 3)
		int * direccion = &destino[i];
 1cc:	fec42783          	lw	a5,-20(s0)
 1d0:	00279793          	slli	a5,a5,0x2
 1d4:	fd842703          	lw	a4,-40(s0)
 1d8:	00f707b3          	add	a5,a4,a5
 1dc:	fef42223          	sw	a5,-28(s0)
C:\Users\ivi17\Downloads\FC2practicasWS\pr4_lab\Debug/../pr4_lab.c:83 (discriminator 3)
		guardar_word(valor, direccion);
 1e0:	fe442583          	lw	a1,-28(s0)
 1e4:	fe842503          	lw	a0,-24(s0)
 1e8:	ec5ff0ef          	jal	ra,ac <guardar_word>
C:\Users\ivi17\Downloads\FC2practicasWS\pr4_lab\Debug/../pr4_lab.c:80 (discriminator 3)
	for (int i= 0; i< size; i++){
 1ec:	fec42783          	lw	a5,-20(s0)
 1f0:	00178793          	addi	a5,a5,1
 1f4:	fef42623          	sw	a5,-20(s0)
C:\Users\ivi17\Downloads\FC2practicasWS\pr4_lab\Debug/../pr4_lab.c:80 (discriminator 1)
 1f8:	fec42703          	lw	a4,-20(s0)
 1fc:	fd442783          	lw	a5,-44(s0)
 200:	faf74ae3          	blt	a4,a5,1b4 <guardar_vector+0x24>
C:\Users\ivi17\Downloads\FC2practicasWS\pr4_lab\Debug/../pr4_lab.c:85
	}
}
 204:	00000013          	nop
 208:	00000013          	nop
 20c:	02c12083          	lw	ra,44(sp)
 210:	02812403          	lw	s0,40(sp)
 214:	03010113          	addi	sp,sp,48
 218:	00008067          	ret

Disassembly of section .text.main:

0000021c <main>:
main():
C:\Users\ivi17\Downloads\FC2practicasWS\pr4_lab\Debug/../pr4_lab.c:92


/**
 * Punto de entrada al programa
 */
void main() {
 21c:	fe010113          	addi	sp,sp,-32
 220:	00112e23          	sw	ra,28(sp)
 224:	00812c23          	sw	s0,24(sp)
 228:	02010413          	addi	s0,sp,32
C:\Users\ivi17\Downloads\FC2practicasWS\pr4_lab\Debug/../pr4_lab.c:94
	//calculamos la distancia euclídea al origen
	int d_u = eucl_dist(U, N);
 22c:	00500593          	li	a1,5
 230:	000107b7          	lui	a5,0x10
 234:	00078513          	mv	a0,a5
 238:	dd1ff0ef          	jal	ra,8 <eucl_dist>
 23c:	fea42623          	sw	a0,-20(s0)
C:\Users\ivi17\Downloads\FC2practicasWS\pr4_lab\Debug/../pr4_lab.c:95
	int d_v = eucl_dist(V, N);
 240:	00500593          	li	a1,5
 244:	000107b7          	lui	a5,0x10
 248:	01478513          	addi	a0,a5,20 # 10014 <V>
 24c:	dbdff0ef          	jal	ra,8 <eucl_dist>
 250:	fea42423          	sw	a0,-24(s0)
C:\Users\ivi17\Downloads\FC2practicasWS\pr4_lab\Debug/../pr4_lab.c:97
	//vemos si U estaba más lejos
	char mayor = d_u > d_v;
 254:	fec42703          	lw	a4,-20(s0)
 258:	fe842783          	lw	a5,-24(s0)
 25c:	00e7a7b3          	slt	a5,a5,a4
 260:	0ff7f793          	andi	a5,a5,255
 264:	fef403a3          	sb	a5,-25(s0)
C:\Users\ivi17\Downloads\FC2practicasWS\pr4_lab\Debug/../pr4_lab.c:98
	guardar(mayor, &mayor_u);
 268:	fe740703          	lb	a4,-25(s0)
 26c:	000107b7          	lui	a5,0x10
 270:	02878593          	addi	a1,a5,40 # 10028 <mayor_u>
 274:	00070513          	mv	a0,a4
 278:	e2dff0ef          	jal	ra,a4 <guardar>
C:\Users\ivi17\Downloads\FC2practicasWS\pr4_lab\Debug/../pr4_lab.c:100

	if (mayor_u)
 27c:	000107b7          	lui	a5,0x10
 280:	02878783          	lb	a5,40(a5) # 10028 <mayor_u>
 284:	02078063          	beqz	a5,2a4 <main+0x88>
C:\Users\ivi17\Downloads\FC2practicasWS\pr4_lab\Debug/../pr4_lab.c:101
		guardar_vector(U, MAY, N);
 288:	00500613          	li	a2,5
 28c:	000107b7          	lui	a5,0x10
 290:	02c78593          	addi	a1,a5,44 # 1002c <MAY>
 294:	000107b7          	lui	a5,0x10
 298:	00078513          	mv	a0,a5
 29c:	ef5ff0ef          	jal	ra,190 <guardar_vector>
 2a0:	01c0006f          	j	2bc <main+0xa0>
C:\Users\ivi17\Downloads\FC2practicasWS\pr4_lab\Debug/../pr4_lab.c:103
	else
		guardar_vector(V, MAY, N);
 2a4:	00500613          	li	a2,5
 2a8:	000107b7          	lui	a5,0x10
 2ac:	02c78593          	addi	a1,a5,44 # 1002c <MAY>
 2b0:	000107b7          	lui	a5,0x10
 2b4:	01478513          	addi	a0,a5,20 # 10014 <V>
 2b8:	ed9ff0ef          	jal	ra,190 <guardar_vector>
C:\Users\ivi17\Downloads\FC2practicasWS\pr4_lab\Debug/../pr4_lab.c:105 (discriminator 1)

	while(1); //quedo en un bucle infinito
 2bc:	0000006f          	j	2bc <main+0xa0>
