
pr5.elf:     file format elf32-littleriscv
pr5.elf
architecture: riscv:rv32, flags 0x00000112:
EXEC_P, HAS_SYMS, D_PAGED
start address 0x000004b0

Program Header:
    LOAD off    0x00001000 vaddr 0x00000000 paddr 0x00000000 align 2**12
         filesz 0x000004f4 memsz 0x000004f4 flags r-x
    LOAD off    0x00002000 vaddr 0x00010000 paddr 0x00010000 align 2**12
         filesz 0x00000064 memsz 0x000000cc flags rw-

Sections:
Idx Name              Size      VMA       LMA       File off  Algn  Flags
  0 .text             000001bc  00000000  00000000  00001000  2**2  CONTENTS, ALLOC, LOAD, READONLY, CODE
  1 .text.matrixCopy  0000010c  000001bc  000001bc  000011bc  2**2  CONTENTS, ALLOC, LOAD, READONLY, CODE
  2 .text.matrixMul   000001e8  000002c8  000002c8  000012c8  2**2  CONTENTS, ALLOC, LOAD, READONLY, CODE
  3 .text.main        00000044  000004b0  000004b0  000014b0  2**2  CONTENTS, ALLOC, LOAD, READONLY, CODE
  4 .data.graph       00000064  00010000  00010000  00002000  2**2  CONTENTS, ALLOC, LOAD, DATA
  5 .bss.z            00000064  00010064  00010064  00002064  2**2  ALLOC
  6 .sbss.paths       00000004  000100c8  000100c8  00002064  2**2  ALLOC
  7 .riscv.attributes 00000021  00000000  00000000  00002064  2**0  CONTENTS, READONLY
  8 .comment          00000012  00000000  00000000  00002085  2**0  CONTENTS, READONLY
  9 .debug_line       00000531  00000000  00000000  00002097  2**0  CONTENTS, READONLY, DEBUGGING, OCTETS
 10 .debug_info       00000233  00000000  00000000  000025c8  2**0  CONTENTS, READONLY, DEBUGGING, OCTETS
 11 .debug_abbrev     000000ea  00000000  00000000  000027fb  2**0  CONTENTS, READONLY, DEBUGGING, OCTETS
 12 .debug_aranges    00000050  00000000  00000000  000028e8  2**3  CONTENTS, READONLY, DEBUGGING, OCTETS
 13 .debug_str        00002415  00000000  00000000  00002938  2**0  CONTENTS, READONLY, DEBUGGING, OCTETS
 14 .debug_ranges     00000020  00000000  00000000  00004d4d  2**0  CONTENTS, READONLY, DEBUGGING, OCTETS
 15 .debug_macro      00000711  00000000  00000000  00004d6d  2**0  CONTENTS, READONLY, DEBUGGING, OCTETS
 16 .debug_frame      0000007c  00000000  00000000  00005480  2**2  CONTENTS, READONLY, DEBUGGING, OCTETS
SYMBOL TABLE:
00000000 l    d  .text	00000000 .text
000001bc l    d  .text.matrixCopy	00000000 .text.matrixCopy
000002c8 l    d  .text.matrixMul	00000000 .text.matrixMul
000004b0 l    d  .text.main	00000000 .text.main
00010000 l    d  .data.graph	00000000 .data.graph
00010064 l    d  .bss.z	00000000 .bss.z
000100c8 l    d  .sbss.paths	00000000 .sbss.paths
00000000 l    d  .riscv.attributes	00000000 .riscv.attributes
00000000 l    d  .comment	00000000 .comment
00000000 l    d  .debug_line	00000000 .debug_line
00000000 l    d  .debug_info	00000000 .debug_info
00000000 l    d  .debug_abbrev	00000000 .debug_abbrev
00000000 l    d  .debug_aranges	00000000 .debug_aranges
00000000 l    d  .debug_str	00000000 .debug_str
00000000 l    d  .debug_ranges	00000000 .debug_ranges
00000000 l    d  .debug_macro	00000000 .debug_macro
00000000 l    d  .debug_frame	00000000 .debug_frame
00000000 l    df *ABS*	00000000 ./fun_asm.o
00000000 l       .text	00000000 matrix_copy
00000004 l       .text	00000000 for_f_mc
0000003c l       .text	00000000 end_f_for_mc
0000000c l       .text	00000000 for_s_mc
00000034 l       .text	00000000 end_s_for_mc
00000040 l       .text	00000000 matrix_mul
00000044 l       .text	00000000 for_f_mm
000000bc l       .text	00000000 end_f_for_mm
0000004c l       .text	00000000 for_s_mm
000000b4 l       .text	00000000 end_s_for_mm
00000068 l       .text	00000000 for_t_mm
000000ac l       .text	00000000 end_t_for_mm
000000dc l       .text	00000000 for_j
0000011c l       .text	00000000 end_j
000000e4 l       .text	00000000 for_k
00000114 l       .text	00000000 end_k
00000104 l       .text	00000000 else_k
00000108 l       .text	00000000 save_k
00000124 l       .text	00000000 for_i
000001b8 l       .text	00000000 end_i
00000000 l    df *ABS*	00000000 pr5.c
000001bc g     F .text.matrixCopy	0000010c matrixCopy
000000c0 g       .text	00000000 matrixPow
00010064 g     O .bss.z	00000064 z
00010000 g     O .data.graph	00000064 graph
000002c8 g     F .text.matrixMul	000001e8 matrixMul
000004b0 g     F .text.main	00000044 main
000100c8 g     O .sbss.paths	00000004 paths
00020000 g       *ABS*	00000000 _stack



Disassembly of section .text:

00000000 <matrix_copy>:
matrix_copy():
C:\Users\ivi17\Downloads\FC2practicasWS\pr5\Debug/../fun_asm.asm:30
 z[i][j] = x[i][j];
}
*/

matrix_copy:
	li t0, 0 // t0 = i
   0:	00000293          	li	t0,0

00000004 <for_f_mc>:
for_f_mc():
C:\Users\ivi17\Downloads\FC2practicasWS\pr5\Debug/../fun_asm.asm:33

for_f_mc:
	bge t0, a0, end_f_for_mc
   4:	02a2dc63          	bge	t0,a0,3c <end_f_for_mc>
C:\Users\ivi17\Downloads\FC2practicasWS\pr5\Debug/../fun_asm.asm:34
	li t1, 0 // t1 = j
   8:	00000313          	li	t1,0

0000000c <for_s_mc>:
for_s_mc():
C:\Users\ivi17\Downloads\FC2practicasWS\pr5\Debug/../fun_asm.asm:36
for_s_mc:
	bge t1, a0, end_s_for_mc
   c:	02a35463          	bge	t1,a0,34 <end_s_for_mc>
C:\Users\ivi17\Downloads\FC2practicasWS\pr5\Debug/../fun_asm.asm:37
	mul t2, t0, a0 // i * n
  10:	02a283b3          	mul	t2,t0,a0
C:\Users\ivi17\Downloads\FC2practicasWS\pr5\Debug/../fun_asm.asm:38
    add t2, t2, t1 // i * n + j
  14:	006383b3          	add	t2,t2,t1
C:\Users\ivi17\Downloads\FC2practicasWS\pr5\Debug/../fun_asm.asm:39
    slli t2, t2, 2 // (i * n + j) * 4
  18:	00239393          	slli	t2,t2,0x2
C:\Users\ivi17\Downloads\FC2practicasWS\pr5\Debug/../fun_asm.asm:40
    add t3, a2, t2  // z[i][j] adress
  1c:	00760e33          	add	t3,a2,t2
C:\Users\ivi17\Downloads\FC2practicasWS\pr5\Debug/../fun_asm.asm:41
    add t4, a1, t2 // x[i][j] adress
  20:	00758eb3          	add	t4,a1,t2
C:\Users\ivi17\Downloads\FC2practicasWS\pr5\Debug/../fun_asm.asm:42
    lw t4,0(t4) // valor x[i][j]
  24:	000eae83          	lw	t4,0(t4)
C:\Users\ivi17\Downloads\FC2practicasWS\pr5\Debug/../fun_asm.asm:43
    sw t4, 0(t3) // z[i][j] = x[i][j]
  28:	01de2023          	sw	t4,0(t3)
C:\Users\ivi17\Downloads\FC2practicasWS\pr5\Debug/../fun_asm.asm:44
    addi t1, t1, 1
  2c:	00130313          	addi	t1,t1,1
C:\Users\ivi17\Downloads\FC2practicasWS\pr5\Debug/../fun_asm.asm:45
    j for_s_mc
  30:	fddff06f          	j	c <for_s_mc>

00000034 <end_s_for_mc>:
end_s_for_mc():
C:\Users\ivi17\Downloads\FC2practicasWS\pr5\Debug/../fun_asm.asm:47
end_s_for_mc:
	addi t0, t0, 1
  34:	00128293          	addi	t0,t0,1
C:\Users\ivi17\Downloads\FC2practicasWS\pr5\Debug/../fun_asm.asm:48
	j for_f_mc
  38:	fcdff06f          	j	4 <for_f_mc>

0000003c <end_f_for_mc>:
end_f_for_mc():
C:\Users\ivi17\Downloads\FC2practicasWS\pr5\Debug/../fun_asm.asm:50
end_f_for_mc:
	ret
  3c:	00008067          	ret

00000040 <matrix_mul>:
matrix_mul():
C:\Users\ivi17\Downloads\FC2practicasWS\pr5\Debug/../fun_asm.asm:53

matrix_mul:
	li t0, 0 // t0 = i
  40:	00000293          	li	t0,0

00000044 <for_f_mm>:
for_f_mm():
C:\Users\ivi17\Downloads\FC2practicasWS\pr5\Debug/../fun_asm.asm:56

for_f_mm:
	bge t0, a0, end_f_for_mm
  44:	06a2dc63          	bge	t0,a0,bc <end_f_for_mm>
C:\Users\ivi17\Downloads\FC2practicasWS\pr5\Debug/../fun_asm.asm:57
	li t1, 0 // t1 = j
  48:	00000313          	li	t1,0

0000004c <for_s_mm>:
for_s_mm():
C:\Users\ivi17\Downloads\FC2practicasWS\pr5\Debug/../fun_asm.asm:59
for_s_mm:
	bge t1, a0, end_s_for_mm
  4c:	06a35463          	bge	t1,a0,b4 <end_s_for_mm>
C:\Users\ivi17\Downloads\FC2practicasWS\pr5\Debug/../fun_asm.asm:60
	mul t2, t0, a0 // i * n
  50:	02a283b3          	mul	t2,t0,a0
C:\Users\ivi17\Downloads\FC2practicasWS\pr5\Debug/../fun_asm.asm:61
    add t2, t2, t1 // i * n + j
  54:	006383b3          	add	t2,t2,t1
C:\Users\ivi17\Downloads\FC2practicasWS\pr5\Debug/../fun_asm.asm:62
    slli t2, t2, 2 // (i * n + j) * 4
  58:	00239393          	slli	t2,t2,0x2
C:\Users\ivi17\Downloads\FC2practicasWS\pr5\Debug/../fun_asm.asm:63
    add t3, a2, t2  // z[i][j] adress
  5c:	00760e33          	add	t3,a2,t2
C:\Users\ivi17\Downloads\FC2practicasWS\pr5\Debug/../fun_asm.asm:64
    sw zero, 0(t3) // z[i][j] = 0
  60:	000e2023          	sw	zero,0(t3)
C:\Users\ivi17\Downloads\FC2practicasWS\pr5\Debug/../fun_asm.asm:65
	li t4, 0 // t4 = k
  64:	00000e93          	li	t4,0

00000068 <for_t_mm>:
for_t_mm():
C:\Users\ivi17\Downloads\FC2practicasWS\pr5\Debug/../fun_asm.asm:67
for_t_mm:
	bge t4, a0, end_t_for_mm
  68:	04aed263          	bge	t4,a0,ac <end_t_for_mm>
C:\Users\ivi17\Downloads\FC2practicasWS\pr5\Debug/../fun_asm.asm:69
	//lw t5, 0(t3) // valor z[i][j]
	mul t5, t0, a0  //i * n
  6c:	02a28f33          	mul	t5,t0,a0
C:\Users\ivi17\Downloads\FC2practicasWS\pr5\Debug/../fun_asm.asm:70
    add t5, t5, t4  //i * n + k
  70:	01df0f33          	add	t5,t5,t4
C:\Users\ivi17\Downloads\FC2practicasWS\pr5\Debug/../fun_asm.asm:71
    slli t5, t5, 2  //(i * n + k) * 4
  74:	002f1f13          	slli	t5,t5,0x2
C:\Users\ivi17\Downloads\FC2practicasWS\pr5\Debug/../fun_asm.asm:72
	add t6, a3, t5 // x[i][k] adress
  78:	01e68fb3          	add	t6,a3,t5
C:\Users\ivi17\Downloads\FC2practicasWS\pr5\Debug/../fun_asm.asm:73
	lw t5, 0(t6)
  7c:	000faf03          	lw	t5,0(t6)
C:\Users\ivi17\Downloads\FC2practicasWS\pr5\Debug/../fun_asm.asm:75

	mul t6, t4, a0  //k * n
  80:	02ae8fb3          	mul	t6,t4,a0
C:\Users\ivi17\Downloads\FC2practicasWS\pr5\Debug/../fun_asm.asm:76
    add t6, t6, t1  //k * n + j
  84:	006f8fb3          	add	t6,t6,t1
C:\Users\ivi17\Downloads\FC2practicasWS\pr5\Debug/../fun_asm.asm:77
    slli t6, t6, 2  //(i * n + k) * 4
  88:	002f9f93          	slli	t6,t6,0x2
C:\Users\ivi17\Downloads\FC2practicasWS\pr5\Debug/../fun_asm.asm:78
	add t2, a3, t6 // y[k][j] adress
  8c:	01f683b3          	add	t2,a3,t6
C:\Users\ivi17\Downloads\FC2practicasWS\pr5\Debug/../fun_asm.asm:79
	lw t6, 0(t2) // valor y[k][j]
  90:	0003af83          	lw	t6,0(t2)
C:\Users\ivi17\Downloads\FC2practicasWS\pr5\Debug/../fun_asm.asm:81

	mul t6, t5, t6 //x[i][k] * y[k][j]
  94:	03ff0fb3          	mul	t6,t5,t6
C:\Users\ivi17\Downloads\FC2practicasWS\pr5\Debug/../fun_asm.asm:83

	lw t5, 0(t3) //z[i][j]
  98:	000e2f03          	lw	t5,0(t3)
C:\Users\ivi17\Downloads\FC2practicasWS\pr5\Debug/../fun_asm.asm:84
	add t5, t5, t6 //z[i][j] += x[i][k] * y[k][j]
  9c:	01ff0f33          	add	t5,t5,t6
C:\Users\ivi17\Downloads\FC2practicasWS\pr5\Debug/../fun_asm.asm:85
    sw t5, 0(t3)
  a0:	01ee2023          	sw	t5,0(t3)
C:\Users\ivi17\Downloads\FC2practicasWS\pr5\Debug/../fun_asm.asm:86
    addi t4, t4, 1 // k++
  a4:	001e8e93          	addi	t4,t4,1
C:\Users\ivi17\Downloads\FC2practicasWS\pr5\Debug/../fun_asm.asm:87
    j for_t_mm
  a8:	fc1ff06f          	j	68 <for_t_mm>

000000ac <end_t_for_mm>:
end_t_for_mm():
C:\Users\ivi17\Downloads\FC2practicasWS\pr5\Debug/../fun_asm.asm:89
end_t_for_mm:
	addi t1, t1, 1 // j++
  ac:	00130313          	addi	t1,t1,1
C:\Users\ivi17\Downloads\FC2practicasWS\pr5\Debug/../fun_asm.asm:90
	j for_s_mm
  b0:	f9dff06f          	j	4c <for_s_mm>

000000b4 <end_s_for_mm>:
end_s_for_mm():
C:\Users\ivi17\Downloads\FC2practicasWS\pr5\Debug/../fun_asm.asm:92
end_s_for_mm:
	addi t0, t0, 1 // i++
  b4:	00128293          	addi	t0,t0,1
C:\Users\ivi17\Downloads\FC2practicasWS\pr5\Debug/../fun_asm.asm:93
	j for_f_mm
  b8:	f8dff06f          	j	44 <for_f_mm>

000000bc <end_f_for_mm>:
end_f_for_mm():
C:\Users\ivi17\Downloads\FC2practicasWS\pr5\Debug/../fun_asm.asm:95
end_f_for_mm:
	ret
  bc:	00008067          	ret

000000c0 <matrixPow>:
matrixPow():
C:\Users\ivi17\Downloads\FC2practicasWS\pr5\Debug/../fun_asm.asm:98

matrixPow:
	la sp , _stack
  c0:	00020117          	auipc	sp,0x20
  c4:	f4010113          	addi	sp,sp,-192 # 20000 <_stack>
C:\Users\ivi17\Downloads\FC2practicasWS\pr5\Debug/../fun_asm.asm:109
	sw s2, 8(sp)
	sw s3, 4(sp)
	sw s4, 0(sp)
	*/

	mv s1, a3 // s1 =  z
  c8:	00068493          	mv	s1,a3
C:\Users\ivi17\Downloads\FC2practicasWS\pr5\Debug/../fun_asm.asm:112

	// reserva de espacio aux en pila
	mul s3, a0, a0 // s3 = n^2
  cc:	02a509b3          	mul	s3,a0,a0
C:\Users\ivi17\Downloads\FC2practicasWS\pr5\Debug/../fun_asm.asm:113
	slli s3, s3, 2 // s3 = n^2 * 4
  d0:	00299993          	slli	s3,s3,0x2
C:\Users\ivi17\Downloads\FC2practicasWS\pr5\Debug/../fun_asm.asm:114
	add s2, sp, s3 // s2 apunta a aux
  d4:	01310933          	add	s2,sp,s3
C:\Users\ivi17\Downloads\FC2practicasWS\pr5\Debug/../fun_asm.asm:117
	//mv s2, sp // s2 apunta aux

	li t0, 0 // t0 = j
  d8:	00000293          	li	t0,0

000000dc <for_j>:
for_j():
C:\Users\ivi17\Downloads\FC2practicasWS\pr5\Debug/../fun_asm.asm:120

for_j:
	bge t0, a0, end_j
  dc:	04a2d063          	bge	t0,a0,11c <end_j>
C:\Users\ivi17\Downloads\FC2practicasWS\pr5\Debug/../fun_asm.asm:121
	li t1, 0 // t1 = k
  e0:	00000313          	li	t1,0

000000e4 <for_k>:
for_k():
C:\Users\ivi17\Downloads\FC2practicasWS\pr5\Debug/../fun_asm.asm:123
for_k:
	bge t1, a0, end_k
  e4:	02a35863          	bge	t1,a0,114 <end_k>
C:\Users\ivi17\Downloads\FC2practicasWS\pr5\Debug/../fun_asm.asm:124
	mul t2, t0, a0 // j*n
  e8:	02a283b3          	mul	t2,t0,a0
C:\Users\ivi17\Downloads\FC2practicasWS\pr5\Debug/../fun_asm.asm:125
	add t2, t2, t1 // j*n + k
  ec:	006383b3          	add	t2,t2,t1
C:\Users\ivi17\Downloads\FC2practicasWS\pr5\Debug/../fun_asm.asm:126
	slli t2, t2, 2 // t2 = (j*n + k)*4
  f0:	00239393          	slli	t2,t2,0x2
C:\Users\ivi17\Downloads\FC2practicasWS\pr5\Debug/../fun_asm.asm:127
	add t3, s1, t2 // z[j][k]
  f4:	00748e33          	add	t3,s1,t2
C:\Users\ivi17\Downloads\FC2practicasWS\pr5\Debug/../fun_asm.asm:129

	bne t0, t1, else_k
  f8:	00629663          	bne	t0,t1,104 <else_k>
C:\Users\ivi17\Downloads\FC2practicasWS\pr5\Debug/../fun_asm.asm:130
	li t4, 1
  fc:	00100e93          	li	t4,1
C:\Users\ivi17\Downloads\FC2practicasWS\pr5\Debug/../fun_asm.asm:131
	j save_k
 100:	0080006f          	j	108 <save_k>

00000104 <else_k>:
else_k():
C:\Users\ivi17\Downloads\FC2practicasWS\pr5\Debug/../fun_asm.asm:133
else_k:
	li t4, 0
 104:	00000e93          	li	t4,0

00000108 <save_k>:
save_k():
C:\Users\ivi17\Downloads\FC2practicasWS\pr5\Debug/../fun_asm.asm:135
save_k:
	sw t4, 0(t3)
 108:	01de2023          	sw	t4,0(t3)
C:\Users\ivi17\Downloads\FC2practicasWS\pr5\Debug/../fun_asm.asm:136
	addi t1, t1, 1 //k++
 10c:	00130313          	addi	t1,t1,1
C:\Users\ivi17\Downloads\FC2practicasWS\pr5\Debug/../fun_asm.asm:137
	j for_k
 110:	fd5ff06f          	j	e4 <for_k>

00000114 <end_k>:
end_k():
C:\Users\ivi17\Downloads\FC2practicasWS\pr5\Debug/../fun_asm.asm:140

end_k:
	addi t0, t0, 1// j++
 114:	00128293          	addi	t0,t0,1
C:\Users\ivi17\Downloads\FC2practicasWS\pr5\Debug/../fun_asm.asm:141
	j for_j
 118:	fc5ff06f          	j	dc <for_j>

0000011c <end_j>:
end_j():
C:\Users\ivi17\Downloads\FC2practicasWS\pr5\Debug/../fun_asm.asm:143
end_j:
	li s4, 1 // s4 = i
 11c:	00100a13          	li	s4,1
C:\Users\ivi17\Downloads\FC2practicasWS\pr5\Debug/../fun_asm.asm:150
	for (int i = 1; i <= e; i++) {
 		matrixMul(n, x, z, aux);
 		matrixCopy(n, aux, z);
 	}
 */
 	mv s5, a2
 120:	00060a93          	mv	s5,a2

00000124 <for_i>:
for_i():
C:\Users\ivi17\Downloads\FC2practicasWS\pr5\Debug/../fun_asm.asm:152
for_i:
	bgt s4, s5, end_i
 124:	094aca63          	blt	s5,s4,1b8 <end_i>
C:\Users\ivi17\Downloads\FC2practicasWS\pr5\Debug/../fun_asm.asm:153
	mv a2, a3
 128:	00068613          	mv	a2,a3
C:\Users\ivi17\Downloads\FC2practicasWS\pr5\Debug/../fun_asm.asm:154
	mv s6, a3
 12c:	00068b13          	mv	s6,a3
C:\Users\ivi17\Downloads\FC2practicasWS\pr5\Debug/../fun_asm.asm:155
	addi sp, sp, -44
 130:	fd410113          	addi	sp,sp,-44
C:\Users\ivi17\Downloads\FC2practicasWS\pr5\Debug/../fun_asm.asm:156
	sw a0, 40(sp)
 134:	02a12423          	sw	a0,40(sp)
C:\Users\ivi17\Downloads\FC2practicasWS\pr5\Debug/../fun_asm.asm:157
	sw a1, 36(sp)
 138:	02b12223          	sw	a1,36(sp)
C:\Users\ivi17\Downloads\FC2practicasWS\pr5\Debug/../fun_asm.asm:158
	sw a2, 32(sp)
 13c:	02c12023          	sw	a2,32(sp)
C:\Users\ivi17\Downloads\FC2practicasWS\pr5\Debug/../fun_asm.asm:159
	sw a3, 28(sp)
 140:	00d12e23          	sw	a3,28(sp)
C:\Users\ivi17\Downloads\FC2practicasWS\pr5\Debug/../fun_asm.asm:160
	sw ra, 24(sp)
 144:	00112c23          	sw	ra,24(sp)
C:\Users\ivi17\Downloads\FC2practicasWS\pr5\Debug/../fun_asm.asm:161
	sw s1, 20(sp)
 148:	00912a23          	sw	s1,20(sp)
C:\Users\ivi17\Downloads\FC2practicasWS\pr5\Debug/../fun_asm.asm:162
	sw s3, 12(sp)
 14c:	01312623          	sw	s3,12(sp)
C:\Users\ivi17\Downloads\FC2practicasWS\pr5\Debug/../fun_asm.asm:163
	sw s4, 8(sp)
 150:	01412423          	sw	s4,8(sp)
C:\Users\ivi17\Downloads\FC2practicasWS\pr5\Debug/../fun_asm.asm:164
	sw s5, 4(sp)
 154:	01512223          	sw	s5,4(sp)
C:\Users\ivi17\Downloads\FC2practicasWS\pr5\Debug/../fun_asm.asm:165
	sw s6, 0(sp)
 158:	01612023          	sw	s6,0(sp)
C:\Users\ivi17\Downloads\FC2practicasWS\pr5\Debug/../fun_asm.asm:166
	mul s3, a0, a0 // s3 = n^2
 15c:	02a509b3          	mul	s3,a0,a0
C:\Users\ivi17\Downloads\FC2practicasWS\pr5\Debug/../fun_asm.asm:167
	slli s3, s3, 2 // s3 = n^2 * 4
 160:	00299993          	slli	s3,s3,0x2
C:\Users\ivi17\Downloads\FC2practicasWS\pr5\Debug/../fun_asm.asm:168
	sub s2, sp, s3 // s2 apunta a aux (addi s2, sp, -100)
 164:	41310933          	sub	s2,sp,s3
C:\Users\ivi17\Downloads\FC2practicasWS\pr5\Debug/../fun_asm.asm:169
	sw s2, 16(sp)
 168:	01212823          	sw	s2,16(sp)
C:\Users\ivi17\Downloads\FC2practicasWS\pr5\Debug/../fun_asm.asm:170
	mv a3, s2
 16c:	00090693          	mv	a3,s2
C:\Users\ivi17\Downloads\FC2practicasWS\pr5\Debug/../fun_asm.asm:172

	call matrixMul
 170:	158000ef          	jal	ra,2c8 <matrixMul>
C:\Users\ivi17\Downloads\FC2practicasWS\pr5\Debug/../fun_asm.asm:174
	//mv a1, s6
	lw a0, 40(sp)
 174:	02812503          	lw	a0,40(sp)
C:\Users\ivi17\Downloads\FC2practicasWS\pr5\Debug/../fun_asm.asm:175
	lw a1, 16(sp)
 178:	01012583          	lw	a1,16(sp)
C:\Users\ivi17\Downloads\FC2practicasWS\pr5\Debug/../fun_asm.asm:176
	lw a2, 20(sp)
 17c:	01412603          	lw	a2,20(sp)
C:\Users\ivi17\Downloads\FC2practicasWS\pr5\Debug/../fun_asm.asm:177
	call matrix_copy
 180:	e81ff0ef          	jal	ra,0 <matrix_copy>
C:\Users\ivi17\Downloads\FC2practicasWS\pr5\Debug/../fun_asm.asm:178
	lw a0, 40(sp)
 184:	02812503          	lw	a0,40(sp)
C:\Users\ivi17\Downloads\FC2practicasWS\pr5\Debug/../fun_asm.asm:179
	lw a1, 36(sp)
 188:	02412583          	lw	a1,36(sp)
C:\Users\ivi17\Downloads\FC2practicasWS\pr5\Debug/../fun_asm.asm:180
	lw a2, 32(sp)
 18c:	02012603          	lw	a2,32(sp)
C:\Users\ivi17\Downloads\FC2practicasWS\pr5\Debug/../fun_asm.asm:181
	lw a3, 28(sp)
 190:	01c12683          	lw	a3,28(sp)
C:\Users\ivi17\Downloads\FC2practicasWS\pr5\Debug/../fun_asm.asm:182
	lw ra, 24(sp)
 194:	01812083          	lw	ra,24(sp)
C:\Users\ivi17\Downloads\FC2practicasWS\pr5\Debug/../fun_asm.asm:183
	lw s1, 20(sp)
 198:	01412483          	lw	s1,20(sp)
C:\Users\ivi17\Downloads\FC2practicasWS\pr5\Debug/../fun_asm.asm:184
	lw s2, 16(sp)
 19c:	01012903          	lw	s2,16(sp)
C:\Users\ivi17\Downloads\FC2practicasWS\pr5\Debug/../fun_asm.asm:185
	lw s3, 12(sp)
 1a0:	00c12983          	lw	s3,12(sp)
C:\Users\ivi17\Downloads\FC2practicasWS\pr5\Debug/../fun_asm.asm:186
	lw s4, 8(sp)
 1a4:	00812a03          	lw	s4,8(sp)
C:\Users\ivi17\Downloads\FC2practicasWS\pr5\Debug/../fun_asm.asm:187
	lw s5, 4(sp)
 1a8:	00412a83          	lw	s5,4(sp)
C:\Users\ivi17\Downloads\FC2practicasWS\pr5\Debug/../fun_asm.asm:188
	lw s6, 0(sp)
 1ac:	00012b03          	lw	s6,0(sp)
C:\Users\ivi17\Downloads\FC2practicasWS\pr5\Debug/../fun_asm.asm:189
	addi sp, sp, 44
 1b0:	02c10113          	addi	sp,sp,44
C:\Users\ivi17\Downloads\FC2practicasWS\pr5\Debug/../fun_asm.asm:190
	addi s4, s4, 1 // i++
 1b4:	001a0a13          	addi	s4,s4,1

000001b8 <end_i>:
end_i():
C:\Users\ivi17\Downloads\FC2practicasWS\pr5\Debug/../fun_asm.asm:192
end_i:
	ret
 1b8:	00008067          	ret

Disassembly of section .text.matrixCopy:

000001bc <matrixCopy>:
matrixCopy():
C:\Users\ivi17\Downloads\FC2practicasWS\pr5\Debug/../pr5.c:49
 matrixMul(n, x, z, aux);
 matrixCopy(n, aux, z);
 }
}
*/
void matrixCopy(int n, int x[n][n], int z[n][n]) {
 1bc:	fd010113          	addi	sp,sp,-48
 1c0:	02812623          	sw	s0,44(sp)
 1c4:	03010413          	addi	s0,sp,48
 1c8:	fca42e23          	sw	a0,-36(s0)
 1cc:	fcb42c23          	sw	a1,-40(s0)
 1d0:	fcc42a23          	sw	a2,-44(s0)
 1d4:	fdc42683          	lw	a3,-36(s0)
 1d8:	fff68613          	addi	a2,a3,-1
 1dc:	fec42223          	sw	a2,-28(s0)
 1e0:	00068613          	mv	a2,a3
 1e4:	00060e13          	mv	t3,a2
 1e8:	00000e93          	li	t4,0
 1ec:	01be5613          	srli	a2,t3,0x1b
 1f0:	005e9893          	slli	a7,t4,0x5
 1f4:	011668b3          	or	a7,a2,a7
 1f8:	005e1813          	slli	a6,t3,0x5
 1fc:	fdc42603          	lw	a2,-36(s0)
 200:	fff60593          	addi	a1,a2,-1
 204:	feb42023          	sw	a1,-32(s0)
 208:	00060593          	mv	a1,a2
 20c:	00058313          	mv	t1,a1
 210:	00000393          	li	t2,0
 214:	01b35593          	srli	a1,t1,0x1b
 218:	00539793          	slli	a5,t2,0x5
 21c:	00f5e7b3          	or	a5,a1,a5
 220:	00531713          	slli	a4,t1,0x5
C:\Users\ivi17\Downloads\FC2practicasWS\pr5\Debug/../pr5.c:50
 for (int i = 0; i < n; i++)
 224:	fe042423          	sw	zero,-24(s0)
 228:	0800006f          	j	2a8 <matrixCopy+0xec>
C:\Users\ivi17\Downloads\FC2practicasWS\pr5\Debug/../pr5.c:51
 for (int j = 0; j < n; j++)
 22c:	fe042623          	sw	zero,-20(s0)
 230:	0600006f          	j	290 <matrixCopy+0xd4>
C:\Users\ivi17\Downloads\FC2practicasWS\pr5\Debug/../pr5.c:52 (discriminator 3)
 z[i][j] = x[i][j];
 234:	00068713          	mv	a4,a3
 238:	fe842783          	lw	a5,-24(s0)
 23c:	02f707b3          	mul	a5,a4,a5
 240:	00279793          	slli	a5,a5,0x2
 244:	fd842703          	lw	a4,-40(s0)
 248:	00f70733          	add	a4,a4,a5
 24c:	00060593          	mv	a1,a2
 250:	fe842783          	lw	a5,-24(s0)
 254:	02f587b3          	mul	a5,a1,a5
 258:	00279793          	slli	a5,a5,0x2
 25c:	fd442583          	lw	a1,-44(s0)
 260:	00f585b3          	add	a1,a1,a5
 264:	fec42783          	lw	a5,-20(s0)
 268:	00279793          	slli	a5,a5,0x2
 26c:	00f707b3          	add	a5,a4,a5
 270:	0007a703          	lw	a4,0(a5)
 274:	fec42783          	lw	a5,-20(s0)
 278:	00279793          	slli	a5,a5,0x2
 27c:	00f587b3          	add	a5,a1,a5
 280:	00e7a023          	sw	a4,0(a5)
C:\Users\ivi17\Downloads\FC2practicasWS\pr5\Debug/../pr5.c:51 (discriminator 3)
 for (int j = 0; j < n; j++)
 284:	fec42783          	lw	a5,-20(s0)
 288:	00178793          	addi	a5,a5,1
 28c:	fef42623          	sw	a5,-20(s0)
C:\Users\ivi17\Downloads\FC2practicasWS\pr5\Debug/../pr5.c:51 (discriminator 1)
 290:	fec42703          	lw	a4,-20(s0)
 294:	fdc42783          	lw	a5,-36(s0)
 298:	f8f74ee3          	blt	a4,a5,234 <matrixCopy+0x78>
C:\Users\ivi17\Downloads\FC2practicasWS\pr5\Debug/../pr5.c:50 (discriminator 2)
 for (int i = 0; i < n; i++)
 29c:	fe842783          	lw	a5,-24(s0)
 2a0:	00178793          	addi	a5,a5,1
 2a4:	fef42423          	sw	a5,-24(s0)
C:\Users\ivi17\Downloads\FC2practicasWS\pr5\Debug/../pr5.c:50 (discriminator 1)
 2a8:	fe842703          	lw	a4,-24(s0)
 2ac:	fdc42783          	lw	a5,-36(s0)
 2b0:	f6f74ee3          	blt	a4,a5,22c <matrixCopy+0x70>
C:\Users\ivi17\Downloads\FC2practicasWS\pr5\Debug/../pr5.c:53
}
 2b4:	00000013          	nop
 2b8:	00000013          	nop
 2bc:	02c12403          	lw	s0,44(sp)
 2c0:	03010113          	addi	sp,sp,48
 2c4:	00008067          	ret

Disassembly of section .text.matrixMul:

000002c8 <matrixMul>:
matrixMul():
C:\Users\ivi17\Downloads\FC2practicasWS\pr5\Debug/../pr5.c:55

void matrixMul(int n, int x[n][n], int y[n][n], int z[n][n]) {
 2c8:	fc010113          	addi	sp,sp,-64
 2cc:	02812e23          	sw	s0,60(sp)
 2d0:	03212c23          	sw	s2,56(sp)
 2d4:	03312a23          	sw	s3,52(sp)
 2d8:	04010413          	addi	s0,sp,64
 2dc:	fca42623          	sw	a0,-52(s0)
 2e0:	fcb42423          	sw	a1,-56(s0)
 2e4:	fcc42223          	sw	a2,-60(s0)
 2e8:	fcd42023          	sw	a3,-64(s0)
 2ec:	fcc42603          	lw	a2,-52(s0)
 2f0:	fff60693          	addi	a3,a2,-1
 2f4:	fed42623          	sw	a3,-20(s0)
 2f8:	00060693          	mv	a3,a2
 2fc:	00068913          	mv	s2,a3
 300:	00000993          	li	s3,0
 304:	01b95693          	srli	a3,s2,0x1b
 308:	00599393          	slli	t2,s3,0x5
 30c:	0076e3b3          	or	t2,a3,t2
 310:	00591313          	slli	t1,s2,0x5
 314:	fcc42583          	lw	a1,-52(s0)
 318:	fff58693          	addi	a3,a1,-1
 31c:	fcd42e23          	sw	a3,-36(s0)
 320:	00058693          	mv	a3,a1
 324:	00068f13          	mv	t5,a3
 328:	00000f93          	li	t6,0
 32c:	01bf5693          	srli	a3,t5,0x1b
 330:	005f9893          	slli	a7,t6,0x5
 334:	0116e8b3          	or	a7,a3,a7
 338:	005f1813          	slli	a6,t5,0x5
 33c:	fcc42683          	lw	a3,-52(s0)
 340:	fff68513          	addi	a0,a3,-1
 344:	fca42c23          	sw	a0,-40(s0)
 348:	00068513          	mv	a0,a3
 34c:	00050e13          	mv	t3,a0
 350:	00000e93          	li	t4,0
 354:	01be5513          	srli	a0,t3,0x1b
 358:	005e9793          	slli	a5,t4,0x5
 35c:	00f567b3          	or	a5,a0,a5
 360:	005e1713          	slli	a4,t3,0x5
C:\Users\ivi17\Downloads\FC2practicasWS\pr5\Debug/../pr5.c:56
 for (int i = 0; i < n; i++)
 364:	fe042023          	sw	zero,-32(s0)
 368:	1200006f          	j	488 <matrixMul+0x1c0>
C:\Users\ivi17\Downloads\FC2practicasWS\pr5\Debug/../pr5.c:57
 for (int j = 0; j < n; j++) {
 36c:	fe042223          	sw	zero,-28(s0)
 370:	1000006f          	j	470 <matrixMul+0x1a8>
C:\Users\ivi17\Downloads\FC2practicasWS\pr5\Debug/../pr5.c:58
 z[i][j] = 0;
 374:	00068713          	mv	a4,a3
 378:	fe042783          	lw	a5,-32(s0)
 37c:	02f707b3          	mul	a5,a4,a5
 380:	00279793          	slli	a5,a5,0x2
 384:	fc042703          	lw	a4,-64(s0)
 388:	00f70733          	add	a4,a4,a5
 38c:	fe442783          	lw	a5,-28(s0)
 390:	00279793          	slli	a5,a5,0x2
 394:	00f707b3          	add	a5,a4,a5
 398:	0007a023          	sw	zero,0(a5)
C:\Users\ivi17\Downloads\FC2practicasWS\pr5\Debug/../pr5.c:59
 for (int k = 0; k < n; k++)
 39c:	fe042423          	sw	zero,-24(s0)
 3a0:	0b80006f          	j	458 <matrixMul+0x190>
C:\Users\ivi17\Downloads\FC2practicasWS\pr5\Debug/../pr5.c:60 (discriminator 3)
 z[i][j] = z[i][j] + x[i][k] * y[k][j];
 3a4:	00068713          	mv	a4,a3
 3a8:	fe042783          	lw	a5,-32(s0)
 3ac:	02f707b3          	mul	a5,a4,a5
 3b0:	00279793          	slli	a5,a5,0x2
 3b4:	fc042703          	lw	a4,-64(s0)
 3b8:	00f70733          	add	a4,a4,a5
 3bc:	fe442783          	lw	a5,-28(s0)
 3c0:	00279793          	slli	a5,a5,0x2
 3c4:	00f707b3          	add	a5,a4,a5
 3c8:	0007a703          	lw	a4,0(a5)
 3cc:	00060513          	mv	a0,a2
 3d0:	fe042783          	lw	a5,-32(s0)
 3d4:	02f507b3          	mul	a5,a0,a5
 3d8:	00279793          	slli	a5,a5,0x2
 3dc:	fc842503          	lw	a0,-56(s0)
 3e0:	00f50533          	add	a0,a0,a5
 3e4:	fe842783          	lw	a5,-24(s0)
 3e8:	00279793          	slli	a5,a5,0x2
 3ec:	00f507b3          	add	a5,a0,a5
 3f0:	0007a503          	lw	a0,0(a5)
 3f4:	00058813          	mv	a6,a1
 3f8:	fe842783          	lw	a5,-24(s0)
 3fc:	02f807b3          	mul	a5,a6,a5
 400:	00279793          	slli	a5,a5,0x2
 404:	fc442803          	lw	a6,-60(s0)
 408:	00f80833          	add	a6,a6,a5
 40c:	fe442783          	lw	a5,-28(s0)
 410:	00279793          	slli	a5,a5,0x2
 414:	00f807b3          	add	a5,a6,a5
 418:	0007a783          	lw	a5,0(a5)
 41c:	02f507b3          	mul	a5,a0,a5
 420:	00068813          	mv	a6,a3
 424:	fe042503          	lw	a0,-32(s0)
 428:	02a80533          	mul	a0,a6,a0
 42c:	00251513          	slli	a0,a0,0x2
 430:	fc042803          	lw	a6,-64(s0)
 434:	00a80533          	add	a0,a6,a0
 438:	00f70733          	add	a4,a4,a5
 43c:	fe442783          	lw	a5,-28(s0)
 440:	00279793          	slli	a5,a5,0x2
 444:	00f507b3          	add	a5,a0,a5
 448:	00e7a023          	sw	a4,0(a5)
C:\Users\ivi17\Downloads\FC2practicasWS\pr5\Debug/../pr5.c:59 (discriminator 3)
 for (int k = 0; k < n; k++)
 44c:	fe842783          	lw	a5,-24(s0)
 450:	00178793          	addi	a5,a5,1
 454:	fef42423          	sw	a5,-24(s0)
C:\Users\ivi17\Downloads\FC2practicasWS\pr5\Debug/../pr5.c:59 (discriminator 1)
 458:	fe842703          	lw	a4,-24(s0)
 45c:	fcc42783          	lw	a5,-52(s0)
 460:	f4f742e3          	blt	a4,a5,3a4 <matrixMul+0xdc>
C:\Users\ivi17\Downloads\FC2practicasWS\pr5\Debug/../pr5.c:57 (discriminator 2)
 for (int j = 0; j < n; j++) {
 464:	fe442783          	lw	a5,-28(s0)
 468:	00178793          	addi	a5,a5,1
 46c:	fef42223          	sw	a5,-28(s0)
C:\Users\ivi17\Downloads\FC2practicasWS\pr5\Debug/../pr5.c:57 (discriminator 1)
 470:	fe442703          	lw	a4,-28(s0)
 474:	fcc42783          	lw	a5,-52(s0)
 478:	eef74ee3          	blt	a4,a5,374 <matrixMul+0xac>
C:\Users\ivi17\Downloads\FC2practicasWS\pr5\Debug/../pr5.c:56 (discriminator 2)
 for (int i = 0; i < n; i++)
 47c:	fe042783          	lw	a5,-32(s0)
 480:	00178793          	addi	a5,a5,1
 484:	fef42023          	sw	a5,-32(s0)
C:\Users\ivi17\Downloads\FC2practicasWS\pr5\Debug/../pr5.c:56 (discriminator 1)
 488:	fe042703          	lw	a4,-32(s0)
 48c:	fcc42783          	lw	a5,-52(s0)
 490:	ecf74ee3          	blt	a4,a5,36c <matrixMul+0xa4>
C:\Users\ivi17\Downloads\FC2practicasWS\pr5\Debug/../pr5.c:62
 }
}
 494:	00000013          	nop
 498:	00000013          	nop
 49c:	03c12403          	lw	s0,60(sp)
 4a0:	03812903          	lw	s2,56(sp)
 4a4:	03412983          	lw	s3,52(sp)
 4a8:	04010113          	addi	sp,sp,64
 4ac:	00008067          	ret

Disassembly of section .text.main:

000004b0 <main>:
main():
C:\Users\ivi17\Downloads\FC2practicasWS\pr5\Debug/../pr5.c:78
 matrixMul(n, x, z, aux);
 matrixCopy(n, aux, z);
 }
}
*/
void main() {
 4b0:	ff010113          	addi	sp,sp,-16
 4b4:	00112623          	sw	ra,12(sp)
 4b8:	00812423          	sw	s0,8(sp)
 4bc:	01010413          	addi	s0,sp,16
C:\Users\ivi17\Downloads\FC2practicasWS\pr5\Debug/../pr5.c:80

    matrixPow(N, graph, STEPS, z);
 4c0:	000107b7          	lui	a5,0x10
 4c4:	06478693          	addi	a3,a5,100 # 10064 <z>
 4c8:	00300613          	li	a2,3
 4cc:	000107b7          	lui	a5,0x10
 4d0:	00078593          	mv	a1,a5
 4d4:	00500513          	li	a0,5
 4d8:	be9ff0ef          	jal	ra,c0 <matrixPow>
C:\Users\ivi17\Downloads\FC2practicasWS\pr5\Debug/../pr5.c:81
    paths = z[ORG][DST];
 4dc:	000107b7          	lui	a5,0x10
 4e0:	06478793          	addi	a5,a5,100 # 10064 <z>
 4e4:	00c7a703          	lw	a4,12(a5)
 4e8:	000107b7          	lui	a5,0x10
 4ec:	0ce7a423          	sw	a4,200(a5) # 100c8 <paths>
C:\Users\ivi17\Downloads\FC2practicasWS\pr5\Debug/../pr5.c:82 (discriminator 1)
	while(1);
 4f0:	0000006f          	j	4f0 <main+0x40>
